target datalayout = "e-m:e-p270:32:32-p271:32:32-p272:64:64-i64:64-i128:128-f80:128-n8:16:32:64-S128"
target triple = "x86_64-pc-linux-gnu"

%struct.Tim_Man_t_ = type { ptr, ptr, ptr, i32, i32, i32, i32, ptr, ptr }
%struct.Tim_Box_t_ = type { i32, i32, i32, i32, i32, i32, i32, [0 x i32] }
%struct.Vec_Ptr_t_ = type { i32, i32, ptr }

@.str.1 = private unnamed_addr constant [17 x i8] c"TIMING MANAGER:\0A\00", align 1
@.str.2 = private unnamed_addr constant [47 x i8] c"PI = %d. CI = %d. PO = %d. CO = %d. Box = %d.\0A\00", align 1
@.str.16 = private unnamed_addr constant [2 x i8] c"\0A\00", align 1
@.str.17 = private unnamed_addr constant [4 x i8] c"%d \00", align 1

; Function Attrs: nounwind uwtable
define internal ptr @Vec_PtrEntry(ptr noundef %0, i32 noundef %1) #0 {
  %3 = alloca ptr, align 8
  %4 = alloca i32, align 4
  store ptr %0, ptr %3, align 8
  store i32 %1, ptr %4, align 4
  %5 = load ptr, ptr %3, align 8
  %6 = getelementptr inbounds %struct.Vec_Ptr_t_, ptr %5, i32 0, i32 2
  %7 = load ptr, ptr %6, align 8
  %8 = load i32, ptr %4, align 4
  %9 = sext i32 %8 to i64
  %10 = getelementptr inbounds ptr, ptr %7, i64 %9
  %11 = load ptr, ptr %10, align 8
  ret ptr %11
}

; Function Attrs: nounwind uwtable
define internal i32 @Vec_PtrSize(ptr noundef %0) #0 {
  %2 = alloca ptr, align 8
  store ptr %0, ptr %2, align 8
  %3 = load ptr, ptr %2, align 8
  %4 = getelementptr inbounds %struct.Vec_Ptr_t_, ptr %3, i32 0, i32 1
  %5 = load i32, ptr %4, align 4
  ret i32 %5
}

; Function Attrs: nounwind uwtable
define i32 @Tim_ManBoxNum(ptr noundef %0) #0 {
  %2 = alloca ptr, align 8
  store ptr %0, ptr %2, align 8
  %3 = load ptr, ptr %2, align 8
  %4 = getelementptr inbounds %struct.Tim_Man_t_, ptr %3, i32 0, i32 0
  %5 = load ptr, ptr %4, align 8
  %6 = icmp ne ptr %5, null
  br i1 %6, label %7, label %12

7:                                                ; preds = %1
  %8 = load ptr, ptr %2, align 8
  %9 = getelementptr inbounds %struct.Tim_Man_t_, ptr %8, i32 0, i32 0
  %10 = load ptr, ptr %9, align 8
  %11 = call i32 @Vec_PtrSize(ptr noundef %10)
  br label %13

12:                                               ; preds = %1
  br label %13

13:                                               ; preds = %12, %7
  %14 = phi i32 [ %11, %7 ], [ 0, %12 ]
  ret i32 %14
}

; Function Attrs: nounwind uwtable
define i32 @Tim_ManCoNum(ptr noundef %0) #0 {
  %2 = alloca ptr, align 8
  store ptr %0, ptr %2, align 8
  %3 = load ptr, ptr %2, align 8
  %4 = getelementptr inbounds %struct.Tim_Man_t_, ptr %3, i32 0, i32 6
  %5 = load i32, ptr %4, align 4
  ret i32 %5
}

; Function Attrs: nounwind uwtable
define i32 @Tim_ManPoNum(ptr noundef %0) #0 {
  %2 = alloca i32, align 4
  %3 = alloca ptr, align 8
  %4 = alloca i32, align 4
  store ptr %0, ptr %3, align 8
  %5 = load ptr, ptr %3, align 8
  %6 = call i32 @Tim_ManBoxNum(ptr noundef %5)
  %7 = icmp eq i32 %6, 0
  br i1 %7, label %8, label %11

8:                                                ; preds = %1
  %9 = load ptr, ptr %3, align 8
  %10 = call i32 @Tim_ManCoNum(ptr noundef %9)
  store i32 %10, ptr %2, align 4
  br label %25

11:                                               ; preds = %1
  %12 = load ptr, ptr %3, align 8
  %13 = call i32 @Tim_ManBoxNum(ptr noundef %12)
  %14 = sub nsw i32 %13, 1
  store i32 %14, ptr %4, align 4
  %15 = load ptr, ptr %3, align 8
  %16 = call i32 @Tim_ManCoNum(ptr noundef %15)
  %17 = load ptr, ptr %3, align 8
  %18 = load i32, ptr %4, align 4
  %19 = call i32 @Tim_ManBoxInputFirst(ptr noundef %17, i32 noundef %18)
  %20 = load ptr, ptr %3, align 8
  %21 = load i32, ptr %4, align 4
  %22 = call i32 @Tim_ManBoxInputNum(ptr noundef %20, i32 noundef %21)
  %23 = add nsw i32 %19, %22
  %24 = sub nsw i32 %16, %23
  store i32 %24, ptr %2, align 4
  br label %25

25:                                               ; preds = %11, %8
  %26 = load i32, ptr %2, align 4
  ret i32 %26
}

; Function Attrs: nounwind uwtable
define i32 @Tim_ManCiNum(ptr noundef %0) #0 {
  %2 = alloca ptr, align 8
  store ptr %0, ptr %2, align 8
  %3 = load ptr, ptr %2, align 8
  %4 = getelementptr inbounds %struct.Tim_Man_t_, ptr %3, i32 0, i32 5
  %5 = load i32, ptr %4, align 8
  ret i32 %5
}

; Function Attrs: nounwind uwtable
define i32 @Tim_ManPiNum(ptr noundef %0) #0 {
  %2 = alloca i32, align 4
  %3 = alloca ptr, align 8
  store ptr %0, ptr %3, align 8
  %4 = load ptr, ptr %3, align 8
  %5 = call i32 @Tim_ManBoxNum(ptr noundef %4)
  %6 = icmp eq i32 %5, 0
  br i1 %6, label %7, label %10

7:                                                ; preds = %1
  %8 = load ptr, ptr %3, align 8
  %9 = call i32 @Tim_ManCiNum(ptr noundef %8)
  store i32 %9, ptr %2, align 4
  br label %13

10:                                               ; preds = %1
  %11 = load ptr, ptr %3, align 8
  %12 = call i32 @Tim_ManBoxOutputFirst(ptr noundef %11, i32 noundef 0)
  store i32 %12, ptr %2, align 4
  br label %13

13:                                               ; preds = %10, %7
  %14 = load i32, ptr %2, align 4
  ret i32 %14
}

; Function Attrs: nounwind uwtable
define void @Tim_ManPrintBoxCopy(ptr noundef %0) #0 {
  %2 = alloca ptr, align 8
  %3 = alloca ptr, align 8
  %4 = alloca i32, align 4
  store ptr %0, ptr %2, align 8
  %5 = load ptr, ptr %2, align 8
  %6 = icmp eq ptr %5, null
  br i1 %6, label %7, label %8

7:                                                ; preds = %1
  br label %51

8:                                                ; preds = %1
  %9 = call i32 (ptr, ...) @printf(ptr noundef @.str.1)
  %10 = load ptr, ptr %2, align 8
  %11 = call i32 @Tim_ManPiNum(ptr noundef %10)
  %12 = load ptr, ptr %2, align 8
  %13 = call i32 @Tim_ManCiNum(ptr noundef %12)
  %14 = load ptr, ptr %2, align 8
  %15 = call i32 @Tim_ManPoNum(ptr noundef %14)
  %16 = load ptr, ptr %2, align 8
  %17 = call i32 @Tim_ManCoNum(ptr noundef %16)
  %18 = load ptr, ptr %2, align 8
  %19 = call i32 @Tim_ManBoxNum(ptr noundef %18)
  %20 = call i32 (ptr, ...) @printf(ptr noundef @.str.2, i32 noundef %11, i32 noundef %13, i32 noundef %15, i32 noundef %17, i32 noundef %19)
  %21 = load ptr, ptr %2, align 8
  %22 = call i32 @Tim_ManBoxNum(ptr noundef %21)
  %23 = icmp sgt i32 %22, 0
  br i1 %23, label %24, label %49

24:                                               ; preds = %8
  store i32 0, ptr %4, align 4
  br label %25

25:                                               ; preds = %45, %24
  %26 = load i32, ptr %4, align 4
  %27 = load ptr, ptr %2, align 8
  %28 = getelementptr inbounds %struct.Tim_Man_t_, ptr %27, i32 0, i32 0
  %29 = load ptr, ptr %28, align 8
  %30 = call i32 @Vec_PtrSize(ptr noundef %29)
  %31 = icmp slt i32 %26, %30
  br i1 %31, label %32, label %38

32:                                               ; preds = %25
  %33 = load ptr, ptr %2, align 8
  %34 = getelementptr inbounds %struct.Tim_Man_t_, ptr %33, i32 0, i32 0
  %35 = load ptr, ptr %34, align 8
  %36 = load i32, ptr %4, align 4
  %37 = call ptr @Vec_PtrEntry(ptr noundef %35, i32 noundef %36)
  store ptr %37, ptr %3, align 8
  br label %38

38:                                               ; preds = %32, %25
  %39 = phi i1 [ false, %25 ], [ true, %32 ]
  br i1 %39, label %40, label %48

40:                                               ; preds = %38
  %41 = load ptr, ptr %3, align 8
  %42 = getelementptr inbounds %struct.Tim_Box_t_, ptr %41, i32 0, i32 5
  %43 = load i32, ptr %42, align 4
  %44 = call i32 (ptr, ...) @printf(ptr noundef @.str.17, i32 noundef %43)
  br label %45

45:                                               ; preds = %40
  %46 = load i32, ptr %4, align 4
  %47 = add nsw i32 %46, 1
  store i32 %47, ptr %4, align 4
  br label %25, !llvm.loop !47

48:                                               ; preds = %38
  br label %49

49:                                               ; preds = %48, %8
  %50 = call i32 (ptr, ...) @printf(ptr noundef @.str.16)
  br label %51

51:                                               ; preds = %49, %7
  ret void
}