; Function Attrs: nounwind uwtable
define void @Tim_ManPrintBoxCopy(ptr noundef %0) local_unnamed_addr #0 {
  %2 = icmp eq ptr %0, null
  br i1 %2, label %44, label %3

3:                                                ; preds = %1
  %puts = tail call i32 @puts(ptr nonnull dereferenceable(1) @str.2)
  %4 = load ptr, ptr %0, align 8
  %.not.i.i = icmp eq ptr %4, null
  br i1 %.not.i.i, label %Tim_ManBoxNum.exit.thread.i, label %Tim_ManBoxNum.exit.i

Tim_ManBoxNum.exit.i:                             ; preds = %3
  %5 = getelementptr i8, ptr %4, i64 4
  %.val.i.i = load i32, ptr %5, align 4
  %6 = icmp eq i32 %.val.i.i, 0
  br i1 %6, label %Tim_ManBoxNum.exit.thread.i, label %9

Tim_ManBoxNum.exit.thread.i:                      ; preds = %Tim_ManBoxNum.exit.i, %3
  %7 = getelementptr inbounds nuw i8, ptr %0, i64 32
  %8 = load i32, ptr %7, align 8
  br label %Tim_ManPiNum.exit

9:                                                ; preds = %Tim_ManBoxNum.exit.i
  %10 = tail call i32 @Tim_ManBoxOutputFirst(ptr noundef nonnull %0, i32 noundef 0) #18
  %.phi.trans.insert = getelementptr inbounds nuw i8, ptr %0, i64 32
  %.pre = load i32, ptr %.phi.trans.insert, align 8
  %.pre27 = load ptr, ptr %0, align 8
  br label %Tim_ManPiNum.exit

Tim_ManPiNum.exit:                                ; preds = %Tim_ManBoxNum.exit.thread.i, %9
  %11 = phi ptr [ %4, %Tim_ManBoxNum.exit.thread.i ], [ %.pre27, %9 ]
  %12 = phi i32 [ %8, %Tim_ManBoxNum.exit.thread.i ], [ %.pre, %9 ]
  %.0.i = phi i32 [ %8, %Tim_ManBoxNum.exit.thread.i ], [ %10, %9 ]
  %.not.i.i14 = icmp eq ptr %11, null
  br i1 %.not.i.i14, label %Tim_ManBoxNum.exit.thread.i18, label %Tim_ManBoxNum.exit.i15

Tim_ManBoxNum.exit.i15:                           ; preds = %Tim_ManPiNum.exit
  %13 = getelementptr i8, ptr %11, i64 4
  %.val.i.i16 = load i32, ptr %13, align 4
  %14 = icmp eq i32 %.val.i.i16, 0
  br i1 %14, label %Tim_ManBoxNum.exit.thread.i18, label %Tim_ManBoxNum.exit10.i

Tim_ManBoxNum.exit.thread.i18:                    ; preds = %Tim_ManBoxNum.exit.i15, %Tim_ManPiNum.exit
  %15 = getelementptr inbounds nuw i8, ptr %0, i64 36
  %16 = load i32, ptr %15, align 4
  br label %Tim_ManPoNum.exit

Tim_ManBoxNum.exit10.i:                           ; preds = %Tim_ManBoxNum.exit.i15
  %17 = add nsw i32 %.val.i.i16, -1
  %18 = getelementptr inbounds nuw i8, ptr %0, i64 36
  %19 = load i32, ptr %18, align 4
  %20 = tail call i32 @Tim_ManBoxInputFirst(ptr noundef nonnull %0, i32 noundef %17) #18
  %21 = tail call i32 @Tim_ManBoxInputNum(ptr noundef nonnull %0, i32 noundef %17) #18
  %22 = add i32 %20, %21
  %23 = sub i32 %19, %22
  %.pre29 = load i32, ptr %18, align 4
  %.pre30 = load ptr, ptr %0, align 8
  br label %Tim_ManPoNum.exit

Tim_ManPoNum.exit:                                ; preds = %Tim_ManBoxNum.exit.thread.i18, %Tim_ManBoxNum.exit10.i
  %24 = phi ptr [ %11, %Tim_ManBoxNum.exit.thread.i18 ], [ %.pre30, %Tim_ManBoxNum.exit10.i ]
  %25 = phi i32 [ %16, %Tim_ManBoxNum.exit.thread.i18 ], [ %.pre29, %Tim_ManBoxNum.exit10.i ]
  %.0.i17 = phi i32 [ %16, %Tim_ManBoxNum.exit.thread.i18 ], [ %23, %Tim_ManBoxNum.exit10.i ]
  %.not.i = icmp eq ptr %24, null
  br i1 %.not.i, label %Tim_ManBoxNum.exit, label %26

26:                                               ; preds = %Tim_ManPoNum.exit
  %27 = getelementptr i8, ptr %24, i64 4
  %.val.i = load i32, ptr %27, align 4
  br label %Tim_ManBoxNum.exit

Tim_ManBoxNum.exit:                               ; preds = %Tim_ManPoNum.exit, %26
  %28 = phi i32 [ %.val.i, %26 ], [ 0, %Tim_ManPoNum.exit ]
  %29 = tail call i32 (ptr, ...) @printf(ptr noundef nonnull dereferenceable(1) @.str.2, i32 noundef %.0.i, i32 noundef %12, i32 noundef %.0.i17, i32 noundef %25, i32 noundef %28)
  %30 = load ptr, ptr %0, align 8
  %.not.i19 = icmp eq ptr %30, null
  br i1 %.not.i19, label %.critedge, label %Tim_ManBoxNum.exit21

Tim_ManBoxNum.exit21:                             ; preds = %Tim_ManBoxNum.exit
  %31 = getelementptr i8, ptr %30, i64 4
  %.val.i20 = load i32, ptr %31, align 4
  %32 = icmp sgt i32 %.val.i20, 0
  br i1 %32, label %.lr.ph, label %.critedge

.lr.ph:                                           ; preds = %Tim_ManBoxNum.exit21, %.lr.ph
  %indvars.iv = phi i64 [ %indvars.iv.next, %.lr.ph ], [ 0, %Tim_ManBoxNum.exit21 ]
  %33 = phi ptr [ %40, %.lr.ph ], [ %30, %Tim_ManBoxNum.exit21 ]
  %34 = getelementptr i8, ptr %33, i64 8
  %.val13 = load ptr, ptr %34, align 8
  %35 = getelementptr inbounds nuw ptr, ptr %.val13, i64 %indvars.iv
  %36 = load ptr, ptr %35, align 8
  %37 = getelementptr inbounds nuw i8, ptr %36, i64 20
  %38 = load i32, ptr %37, align 4
  %39 = tail call i32 (ptr, ...) @printf(ptr noundef nonnull dereferenceable(1) @.str.17, i32 noundef %38)
  %indvars.iv.next = add nuw nsw i64 %indvars.iv, 1
  %40 = load ptr, ptr %0, align 8
  %41 = getelementptr i8, ptr %40, i64 4
  %.val = load i32, ptr %41, align 4
  %42 = sext i32 %.val to i64
  %43 = icmp slt i64 %indvars.iv.next, %42
  br i1 %43, label %.lr.ph, label %.critedge, !llvm.loop !48

.critedge:                                        ; preds = %.lr.ph, %Tim_ManBoxNum.exit, %Tim_ManBoxNum.exit21
  %putchar = tail call i32 @putchar(i32 10)
  br label %44

44:                                               ; preds = %1, %.critedge
  ret void
}